target datalayout = "e-m:e-p270:32:32-p271:32:32-p272:64:64-i64:64-i128:128-f80:128-n8:16:32:64-S128"
target triple = "x86_64-pc-linux-gnu"

%struct._zend_executor_globals = type { %struct._zval_struct, %struct._zval_struct, [32 x ptr], ptr, ptr, %struct._zend_array, %struct._zend_array, ptr, i32, i8, %struct._zval_struct, i32, ptr, ptr, ptr, ptr, ptr, ptr, i64, ptr, ptr, i32, ptr, i32, i64, i32, i32, i32, i8, i8, %struct.zend_atomic_bool_s, %struct.zend_atomic_bool_s, ptr, i64, ptr, ptr, %struct._zend_array, %struct._zend_array, i32, i8, %struct._zval_struct, %struct._zval_struct, %struct._zend_stack, %struct._zend_stack, %struct._zend_stack, ptr, i32, i32, i64, ptr, ptr, ptr, %struct._zend_objects_store, %struct._zend_lazy_objects_store, ptr, ptr, ptr, [3 x %struct._zend_op], ptr, i8, i8, i64, i32, i32, ptr, [16 x %struct._HashTableIterator], ptr, %union._zend_function, %struct._zend_op, %struct._zend_array, i64, %struct.zend_get_gc_buffer, ptr, ptr, ptr, i64, i8, i32, ptr, ptr, i64, %struct._zend_call_stack, i64, i64, %struct._zend_strtod_state, [6 x ptr] }
%struct.zend_atomic_bool_s = type { i8 }
%struct._zval_struct = type { %union._zend_value, %union.anon, %union.anon.2 }
%union._zend_value = type { i64 }
%union.anon = type { i32 }
%union.anon.2 = type { i32 }
%struct._zend_stack = type { i32, i32, i32, ptr }
%struct._zend_objects_store = type { ptr, i32, i32, i32 }
%struct._zend_lazy_objects_store = type { %struct._zend_array }
%struct._HashTableIterator = type { ptr, i32, i32 }
%union._zend_function = type { %struct._zend_op_array }
%struct._zend_op_array = type { i8, [3 x i8], i32, ptr, ptr, ptr, i32, i32, ptr, ptr, ptr, ptr, i32, ptr, i32, i32, i32, ptr, ptr, ptr, ptr, ptr, i32, i32, ptr, ptr, ptr, i32, i32, i32, i32, ptr, ptr, [6 x ptr] }
%struct._zend_op = type { ptr, %union._znode_op, %union._znode_op, %union._znode_op, i32, i32, i8, i8, i8, i8 }
%union._znode_op = type { i32 }
%struct._zend_array = type { %struct._zend_refcounted_h, %union.anon.4, i32, %union.anon.6, i32, i32, i32, i32, i64, ptr }
%struct._zend_refcounted_h = type { i32, %union.anon.3 }
%union.anon.3 = type { i32 }
%union.anon.4 = type { i32 }
%union.anon.6 = type { ptr }
%struct.zend_get_gc_buffer = type { ptr, ptr, ptr }
%struct._zend_call_stack = type { ptr, i64 }
%struct._zend_strtod_state = type { [8 x ptr], ptr, ptr }
%struct._zend_execute_data = type { ptr, ptr, ptr, ptr, %struct._zval_struct, ptr, ptr, ptr, ptr }

@executor_globals = external global %struct._zend_executor_globals, align 8
@.str.35 = private unnamed_addr constant [4 x i8] c"S|l\00", align 1
@.str.36 = private unnamed_addr constant [127 x i8] c"Passing E_USER_ERROR to trigger_error() is deprecated since 8.4, throw an exception or call exit with a string message instead\00", align 1
@.str.37 = private unnamed_addr constant [81 x i8] c"must be one of E_USER_ERROR, E_USER_WARNING, E_USER_NOTICE, or E_USER_DEPRECATED\00", align 1

; Function Attrs: nounwind uwtable
define hidden void @zif_trigger_error(ptr noundef %0, ptr noundef %1) #0 {
  %3 = alloca ptr, align 8
  %4 = alloca ptr, align 8
  %5 = alloca i64, align 8
  %6 = alloca ptr, align 8
  %7 = alloca i32, align 4
  store ptr %0, ptr %3, align 8, !tbaa !66
  store ptr %1, ptr %4, align 8, !tbaa !67
  call void @llvm.lifetime.start.p0(i64 8, ptr %5) #14
  store i64 1024, ptr %5, align 8, !tbaa !68
  call void @llvm.lifetime.start.p0(i64 8, ptr %6) #14
  %8 = load ptr, ptr %3, align 8, !tbaa !66
  %9 = getelementptr inbounds nuw %struct._zend_execute_data, ptr %8, i32 0, i32 4
  %10 = getelementptr inbounds nuw %struct._zval_struct, ptr %9, i32 0, i32 2
  %11 = load i32, ptr %10, align 4, !tbaa !31
  %12 = call i32 (i32, ptr, ...) @zend_parse_parameters(i32 noundef %11, ptr noundef @.str.35, ptr noundef %6, ptr noundef %5)
  %13 = icmp eq i32 %12, -1
  br i1 %13, label %14, label %20

14:                                               ; preds = %2
  br label %15

15:                                               ; preds = %14
  %16 = load ptr, ptr getelementptr inbounds nuw (%struct._zend_executor_globals, ptr @executor_globals, i32 0, i32 54), align 8, !tbaa !75
  %17 = icmp ne ptr %16, null
  call void @llvm.assume(i1 %17)
  store i32 1, ptr %7, align 4
  br label %59

18:                                               ; No predecessors!
  br label %19

19:                                               ; preds = %18
  br label %20

20:                                               ; preds = %19, %2
  %21 = load i64, ptr %5, align 8, !tbaa !68
  switch i64 %21, label %39 [
    i64 256, label %22
    i64 512, label %38
    i64 1024, label %38
    i64 16384, label %38
  ]

22:                                               ; preds = %20
  call void (i32, ptr, ...) @zend_error(i32 noundef 8192, ptr noundef @.str.36)
  %23 = load ptr, ptr getelementptr inbounds nuw (%struct._zend_executor_globals, ptr @executor_globals, i32 0, i32 54), align 8, !tbaa !75
  %24 = icmp ne ptr %23, null
  %25 = xor i1 %24, true
  %26 = xor i1 %25, true
  %27 = zext i1 %26 to i32
  %28 = sext i32 %27 to i64
  %29 = call i64 @llvm.expect.i64(i64 %28, i64 0)
  %30 = icmp ne i64 %29, 0
  br i1 %30, label %31, label %37

31:                                               ; preds = %22
  br label %32

32:                                               ; preds = %31
  %33 = load ptr, ptr getelementptr inbounds nuw (%struct._zend_executor_globals, ptr @executor_globals, i32 0, i32 54), align 8, !tbaa !75
  %34 = icmp ne ptr %33, null
  call void @llvm.assume(i1 %34)
  store i32 1, ptr %7, align 4
  br label %59

35:                                               ; No predecessors!
  br label %36

36:                                               ; preds = %35
  br label %37

37:                                               ; preds = %36, %22
  br label %38

38:                                               ; preds = %20, %20, %20, %37
  br label %45

39:                                               ; preds = %20
  call void (i32, ptr, ...) @zend_argument_value_error(i32 noundef 2, ptr noundef @.str.37)
  br label %40

40:                                               ; preds = %39
  %41 = load ptr, ptr getelementptr inbounds nuw (%struct._zend_executor_globals, ptr @executor_globals, i32 0, i32 54), align 8, !tbaa !75
  %42 = icmp ne ptr %41, null
  call void @llvm.assume(i1 %42)
  store i32 1, ptr %7, align 4
  br label %59

43:                                               ; No predecessors!
  br label %44

44:                                               ; preds = %43
  br label %45

45:                                               ; preds = %44, %38
  %46 = load i64, ptr %5, align 8, !tbaa !68
  %47 = trunc i64 %46 to i32
  %48 = call ptr @zend_get_executed_filename_ex()
  %49 = call i32 @zend_get_executed_lineno()
  %50 = load ptr, ptr %6, align 8, !tbaa !32
  call void @zend_error_zstr_at(i32 noundef %47, ptr noundef %48, i32 noundef %49, ptr noundef %50)
  br label %51

51:                                               ; preds = %45
  br label %52

52:                                               ; preds = %51
  %53 = load ptr, ptr %4, align 8, !tbaa !67
  %54 = getelementptr inbounds nuw %struct._zval_struct, ptr %53, i32 0, i32 1
  store i32 3, ptr %54, align 8, !tbaa !31
  br label %55

55:                                               ; preds = %52
  br label %56

56:                                               ; preds = %55
  store i32 1, ptr %7, align 4
  br label %59

57:                                               ; No predecessors!
  br label %58

58:                                               ; preds = %57
  store i32 0, ptr %7, align 4
  br label %59

59:                                               ; preds = %58, %56, %40, %32, %15
  call void @llvm.lifetime.end.p0(i64 8, ptr %6) #14
  call void @llvm.lifetime.end.p0(i64 8, ptr %5) #14
  %60 = load i32, ptr %7, align 4
  switch i32 %60, label %62 [
    i32 0, label %61
    i32 1, label %61
  ]

61:                                               ; preds = %59, %59
  ret void

62:                                               ; preds = %59
  unreachable
}