; Function Attrs: nounwind uwtable
define hidden void @zif_trigger_error(ptr noundef readonly captures(none) %0, ptr noundef writeonly captures(none) %1) #0 {
  %3 = alloca i64, align 8
  %4 = alloca ptr, align 8
  call void @llvm.lifetime.start.p0(i64 8, ptr nonnull %3) #14
  store i64 1024, ptr %3, align 8, !tbaa !61
  call void @llvm.lifetime.start.p0(i64 8, ptr nonnull %4) #14
  %5 = getelementptr inbounds nuw i8, ptr %0, i64 44
  %6 = load i32, ptr %5, align 4, !tbaa !28
  %7 = call i32 (i32, ptr, ...) @zend_parse_parameters(i32 noundef %6, ptr noundef nonnull @.str.35, ptr noundef nonnull %4, ptr noundef nonnull %3) #14
  %8 = icmp eq i32 %7, -1
  br i1 %8, label %9, label %12

9:                                                ; preds = %2
  %10 = load ptr, ptr getelementptr inbounds nuw (i8, ptr @executor_globals, i64 960), align 8, !tbaa !67
  %11 = icmp ne ptr %10, null
  call void @llvm.assume(i1 %11)
  br label %26

12:                                               ; preds = %2
  %13 = load i64, ptr %3, align 8, !tbaa !61
  switch i64 %13, label %16 [
    i64 256, label %14
    i64 512, label %19
    i64 1024, label %19
    i64 16384, label %19
  ]

14:                                               ; preds = %12
  call void (i32, ptr, ...) @zend_error(i32 noundef 8192, ptr noundef nonnull @.str.36) #14
  %15 = load ptr, ptr getelementptr inbounds nuw (i8, ptr @executor_globals, i64 960), align 8, !tbaa !67
  %.not = icmp eq ptr %15, null
  br i1 %.not, label %._crit_edge, label %26, !prof !69

._crit_edge:                                      ; preds = %14
  %.pre = load i64, ptr %3, align 8, !tbaa !61
  br label %19

16:                                               ; preds = %12
  call void (i32, ptr, ...) @zend_argument_value_error(i32 noundef 2, ptr noundef nonnull @.str.37) #14
  %17 = load ptr, ptr getelementptr inbounds nuw (i8, ptr @executor_globals, i64 960), align 8, !tbaa !67
  %18 = icmp ne ptr %17, null
  call void @llvm.assume(i1 %18)
  br label %26

19:                                               ; preds = %._crit_edge, %12, %12, %12
  %20 = phi i64 [ %.pre, %._crit_edge ], [ %13, %12 ], [ %13, %12 ], [ %13, %12 ]
  %21 = trunc i64 %20 to i32
  %22 = call ptr @zend_get_executed_filename_ex() #14
  %23 = call i32 @zend_get_executed_lineno() #14
  %24 = load ptr, ptr %4, align 8, !tbaa !60
  call void @zend_error_zstr_at(i32 noundef %21, ptr noundef %22, i32 noundef %23, ptr noundef %24) #14
  %25 = getelementptr inbounds nuw i8, ptr %1, i64 8
  store i32 3, ptr %25, align 8, !tbaa !28
  br label %26

26:                                               ; preds = %14, %19, %16, %9
  call void @llvm.lifetime.end.p0(i64 8, ptr nonnull %4) #14
  call void @llvm.lifetime.end.p0(i64 8, ptr nonnull %3) #14
  ret void
}